; Function Attrs: mustprogress uwtable
define void @_ZN6icu_7513MeasureFormatC2ERKNS_6LocaleE19UMeasureFormatWidthPNS_12NumberFormatER10UErrorCode(ptr noundef nonnull align 8 dereferenceable(368) %this, ptr noundef nonnull align 8 dereferenceable(217) %locale, i32 noundef %w, ptr noundef %nfToAdopt, ptr noundef nonnull align 4 dereferenceable(4) %status) unnamed_addr #1 align 2 personality ptr @__gxx_personality_v0 {
entry:
  tail call void @_ZN6icu_756FormatC2Ev(ptr noundef nonnull align 8 dereferenceable(322) %this)
  store ptr getelementptr inbounds ({ [10 x ptr] }, ptr @_ZTVN6icu_7513MeasureFormatE, i64 0, i32 0, i64 2), ptr %this, align 8
  %cache = getelementptr inbounds i8, ptr %this, i64 328
  %fWidth = getelementptr inbounds i8, ptr %this, i64 352
  tail call void @llvm.memset.p0.i64(ptr noundef nonnull align 8 dereferenceable(24) %cache, i8 0, i64 24, i1 false)
  store i32 %w, ptr %fWidth, align 8
  %listFormatter = getelementptr inbounds i8, ptr %this, i64 360
  store ptr null, ptr %listFormatter, align 8
  invoke void @_ZN6icu_7513MeasureFormat17initMeasureFormatERKNS_6LocaleE19UMeasureFormatWidthPNS_12NumberFormatER10UErrorCode(ptr noundef nonnull align 8 dereferenceable(368) %this, ptr noundef nonnull align 8 dereferenceable(217) %locale, i32 noundef %w, ptr noundef %nfToAdopt, ptr noundef nonnull align 4 dereferenceable(4) %status)
          to label %invoke.cont unwind label %lpad

invoke.cont:                                      ; preds = %entry
  ret void

lpad:                                             ; preds = %entry
  %0 = landingpad { ptr, i32 }
          cleanup
  tail call void @_ZN6icu_756FormatD2Ev(ptr noundef nonnull align 8 dereferenceable(322) %this) #16
  resume { ptr, i32 } %0
}